; Function Attrs: nounwind sspstrong uwtable
define dso_local noundef i64 @rb_struct_define_without_accessor_under(i64 noundef %0, ptr noundef nonnull %1, i64 noundef %2, ptr noundef %3, ...) local_unnamed_addr #0 {
  %5 = alloca [1 x %struct.__va_list_tag], align 16
  call void @llvm.lifetime.start.p0(i64 24, ptr nonnull %5) #19
  call void @llvm.va_start.p0(ptr nonnull %5)
  %6 = call fastcc i64 @struct_make_members_list(ptr noundef %5)
  call void @llvm.va_end.p0(ptr nonnull %5)
  %.not17.i = icmp eq i64 %0, 0
  br i1 %.not17.i, label %9, label %7

7:                                                ; preds = %4
  %8 = call i64 @rb_define_class_under(i64 noundef %0, ptr noundef nonnull %1, i64 noundef %2) #19
  br label %struct_define_without_accessor.exit

9:                                                ; preds = %4
  %10 = call i64 @rb_define_class(ptr noundef nonnull %1, i64 noundef %2) #19
  br label %struct_define_without_accessor.exit

struct_define_without_accessor.exit:              ; preds = %7, %9
  %.0.i = phi i64 [ %8, %7 ], [ %10, %9 ]
  %11 = call fastcc i64 @struct_set_members(i64 noundef %.0.i, i64 noundef %6)
  %.not18.i = icmp eq ptr %3, null
  %struct_alloc..i = select i1 %.not18.i, ptr @struct_alloc, ptr %3
  call void @rb_define_alloc_func(i64 noundef %.0.i, ptr noundef nonnull %struct_alloc..i) #19
  call void @llvm.lifetime.end.p0(i64 24, ptr nonnull %5) #19
  ret i64 %.0.i
}